; Function Attrs: mustprogress uwtable
define noundef range(i64 0, -9223372036854775808) i64 @_ZN3fmt3v114file5writeEPKvm(ptr noundef nonnull readonly align 4 captures(none) dereferenceable(4) %0, ptr noundef readonly captures(none) %1, i64 noundef %2) local_unnamed_addr #6 align 2 personality ptr @__gxx_personality_v0 {
  %4 = alloca %"struct.fmt::v11::detail::format_arg_store.41", align 16
  br label %5

5:                                                ; preds = %9, %3
  %6 = load i32, ptr %0, align 4, !tbaa !22
  %7 = tail call i64 @write(i32 noundef %6, ptr noundef %1, i64 noundef %2)
  %8 = icmp eq i64 %7, -1
  br i1 %8, label %9, label %.critedge

9:                                                ; preds = %5
  %10 = tail call ptr @__errno_location() #16
  %11 = load i32, ptr %10, align 4, !tbaa !9
  %12 = icmp eq i32 %11, 4
  br i1 %12, label %5, label %.critedge.thread, !llvm.loop !42

.critedge:                                        ; preds = %5
  %13 = icmp slt i64 %7, 0
  br i1 %13, label %.critedge.thread, label %20

.critedge.thread:                                 ; preds = %9, %.critedge
  %14 = tail call ptr @__cxa_allocate_exception(i64 32) #17
  %15 = tail call ptr @__errno_location() #16
  %16 = load i32, ptr %15, align 4, !tbaa !9
  call void @llvm.lifetime.start.p0(i64 16, ptr nonnull %4) #17, !noalias !43
  invoke void @_ZN3fmt3v1113vsystem_errorEiNS0_17basic_string_viewIcEENS0_17basic_format_argsINS0_7contextEEE(ptr dead_on_unwind writable sret(%"class.std::system_error") align 8 %14, i32 noundef %16, ptr nonnull @.str.6, i64 20, i64 0, ptr nonnull %4)
          to label %17 unwind label %18

17:                                               ; preds = %.critedge.thread
  call void @llvm.lifetime.end.p0(i64 16, ptr nonnull %4) #17, !noalias !43
  call void @__cxa_throw(ptr %14, ptr nonnull @_ZTISt12system_error, ptr nonnull @_ZNSt12system_errorD1Ev) #19
  unreachable

18:                                               ; preds = %.critedge.thread
  %19 = landingpad { ptr, i32 }
          cleanup
  call void @__cxa_free_exception(ptr %14) #17
  resume { ptr, i32 } %19

20:                                               ; preds = %.critedge
  ret i64 %7
}